target datalayout = "e-m:e-p270:32:32-p271:32:32-p272:64:64-i64:64-i128:128-f80:128-n8:16:32:64-S128"
target triple = "x86_64-pc-linux-gnu"

%struct.NALU = type { i32, i32 }
%struct.NALUList = type { ptr, i32, i32 }

; Function Attrs: nounwind uwtable
define internal i32 @nal_parse_units(ptr noundef %0, ptr noundef %1, ptr noundef %2, i32 noundef %3) #0 {
  %5 = alloca i32, align 4
  %6 = alloca ptr, align 8
  %7 = alloca ptr, align 8
  %8 = alloca ptr, align 8
  %9 = alloca i32, align 4
  %10 = alloca ptr, align 8
  %11 = alloca ptr, align 8
  %12 = alloca ptr, align 8
  %13 = alloca ptr, align 8
  %14 = alloca i64, align 8
  %15 = alloca i32, align 4
  %16 = alloca ptr, align 8
  %17 = alloca %struct.NALU, align 4
  store ptr %0, ptr %6, align 8, !tbaa !16
  store ptr %1, ptr %7, align 8, !tbaa !18
  store ptr %2, ptr %8, align 8, !tbaa !4
  store i32 %3, ptr %9, align 4, !tbaa !12
  call void @llvm.lifetime.start.p0(i64 8, ptr %10) #5
  %18 = load ptr, ptr %8, align 8, !tbaa !4
  store ptr %18, ptr %10, align 8, !tbaa !4
  call void @llvm.lifetime.start.p0(i64 8, ptr %11) #5
  %19 = load ptr, ptr %10, align 8, !tbaa !4
  %20 = load i32, ptr %9, align 4, !tbaa !12
  %21 = sext i32 %20 to i64
  %22 = getelementptr inbounds i8, ptr %19, i64 %21
  store ptr %22, ptr %11, align 8, !tbaa !4
  call void @llvm.lifetime.start.p0(i64 8, ptr %12) #5
  call void @llvm.lifetime.start.p0(i64 8, ptr %13) #5
  store i32 0, ptr %9, align 4, !tbaa !12
  %23 = load ptr, ptr %10, align 8, !tbaa !4
  %24 = load ptr, ptr %11, align 8, !tbaa !4
  %25 = call ptr @ff_nal_find_startcode(ptr noundef %23, ptr noundef %24)
  store ptr %25, ptr %12, align 8, !tbaa !4
  br label %26

26:                                               ; preds = %133, %4
  call void @llvm.lifetime.start.p0(i64 8, ptr %14) #5
  store i64 2305843009213693951, ptr %14, align 8, !tbaa !20
  br label %27

27:                                               ; preds = %39, %26
  %28 = load ptr, ptr %12, align 8, !tbaa !4
  %29 = load ptr, ptr %11, align 8, !tbaa !4
  %30 = icmp ult ptr %28, %29
  br i1 %30, label %31, label %37

31:                                               ; preds = %27
  %32 = load ptr, ptr %12, align 8, !tbaa !4
  %33 = getelementptr inbounds nuw i8, ptr %32, i32 1
  store ptr %33, ptr %12, align 8, !tbaa !4
  %34 = load i8, ptr %32, align 1, !tbaa !9
  %35 = icmp ne i8 %34, 0
  %36 = xor i1 %35, true
  br label %37

37:                                               ; preds = %31, %27
  %38 = phi i1 [ false, %27 ], [ %36, %31 ]
  br i1 %38, label %39, label %40

39:                                               ; preds = %37
  br label %27, !llvm.loop !22

40:                                               ; preds = %37
  %41 = load ptr, ptr %12, align 8, !tbaa !4
  %42 = load ptr, ptr %11, align 8, !tbaa !4
  %43 = icmp eq ptr %41, %42
  br i1 %43, label %44, label %45

44:                                               ; preds = %40
  store i32 2, ptr %15, align 4
  br label %131

45:                                               ; preds = %40
  %46 = load ptr, ptr %12, align 8, !tbaa !4
  %47 = load ptr, ptr %11, align 8, !tbaa !4
  %48 = call ptr @ff_nal_find_startcode(ptr noundef %46, ptr noundef %47)
  store ptr %48, ptr %13, align 8, !tbaa !4
  %49 = load ptr, ptr %6, align 8, !tbaa !16
  %50 = icmp ne ptr %49, null
  br i1 %50, label %51, label %67

51:                                               ; preds = %45
  %52 = load ptr, ptr %6, align 8, !tbaa !16
  %53 = load ptr, ptr %13, align 8, !tbaa !4
  %54 = load ptr, ptr %12, align 8, !tbaa !4
  %55 = ptrtoint ptr %53 to i64
  %56 = ptrtoint ptr %54 to i64
  %57 = sub i64 %55, %56
  %58 = trunc i64 %57 to i32
  call void @avio_wb32(ptr noundef %52, i32 noundef %58)
  %59 = load ptr, ptr %6, align 8, !tbaa !16
  %60 = load ptr, ptr %12, align 8, !tbaa !4
  %61 = load ptr, ptr %13, align 8, !tbaa !4
  %62 = load ptr, ptr %12, align 8, !tbaa !4
  %63 = ptrtoint ptr %61 to i64
  %64 = ptrtoint ptr %62 to i64
  %65 = sub i64 %63, %64
  %66 = trunc i64 %65 to i32
  call void @avio_write(ptr noundef %59, ptr noundef %60, i32 noundef %66)
  br label %119

67:                                               ; preds = %45
  %68 = load ptr, ptr %7, align 8, !tbaa !18
  %69 = getelementptr inbounds nuw %struct.NALUList, ptr %68, i32 0, i32 2
  %70 = load i32, ptr %69, align 4, !tbaa !23
  %71 = zext i32 %70 to i64
  %72 = icmp uge i64 %71, 2305843009213693951
  br i1 %72, label %73, label %74

73:                                               ; preds = %67
  store i32 -34, ptr %5, align 4
  store i32 1, ptr %15, align 4
  br label %131

74:                                               ; preds = %67
  call void @llvm.lifetime.start.p0(i64 8, ptr %16) #5
  %75 = load ptr, ptr %7, align 8, !tbaa !18
  %76 = getelementptr inbounds nuw %struct.NALUList, ptr %75, i32 0, i32 0
  %77 = load ptr, ptr %76, align 8, !tbaa !26
  %78 = load ptr, ptr %7, align 8, !tbaa !18
  %79 = getelementptr inbounds nuw %struct.NALUList, ptr %78, i32 0, i32 1
  %80 = load ptr, ptr %7, align 8, !tbaa !18
  %81 = getelementptr inbounds nuw %struct.NALUList, ptr %80, i32 0, i32 2
  %82 = load i32, ptr %81, align 4, !tbaa !23
  %83 = add i32 %82, 1
  %84 = zext i32 %83 to i64
  %85 = mul i64 %84, 8
  %86 = call ptr @av_fast_realloc(ptr noundef %77, ptr noundef %79, i64 noundef %85)
  store ptr %86, ptr %16, align 8, !tbaa !27
  %87 = load ptr, ptr %16, align 8, !tbaa !27
  %88 = icmp ne ptr %87, null
  br i1 %88, label %90, label %89

89:                                               ; preds = %74
  store i32 -12, ptr %5, align 4
  store i32 1, ptr %15, align 4
  br label %115

90:                                               ; preds = %74
  %91 = load ptr, ptr %16, align 8, !tbaa !27
  %92 = load ptr, ptr %7, align 8, !tbaa !18
  %93 = getelementptr inbounds nuw %struct.NALUList, ptr %92, i32 0, i32 0
  store ptr %91, ptr %93, align 8, !tbaa !26
  %94 = load ptr, ptr %16, align 8, !tbaa !27
  %95 = load ptr, ptr %7, align 8, !tbaa !18
  %96 = getelementptr inbounds nuw %struct.NALUList, ptr %95, i32 0, i32 2
  %97 = load i32, ptr %96, align 4, !tbaa !23
  %98 = add i32 %97, 1
  store i32 %98, ptr %96, align 4, !tbaa !23
  %99 = zext i32 %97 to i64
  %100 = getelementptr inbounds nuw %struct.NALU, ptr %94, i64 %99
  %101 = getelementptr inbounds nuw %struct.NALU, ptr %17, i32 0, i32 0
  %102 = load ptr, ptr %12, align 8, !tbaa !4
  %103 = load ptr, ptr %10, align 8, !tbaa !4
  %104 = ptrtoint ptr %102 to i64
  %105 = ptrtoint ptr %103 to i64
  %106 = sub i64 %104, %105
  %107 = trunc i64 %106 to i32
  store i32 %107, ptr %101, align 4, !tbaa !28
  %108 = getelementptr inbounds nuw %struct.NALU, ptr %17, i32 0, i32 1
  %109 = load ptr, ptr %13, align 8, !tbaa !4
  %110 = load ptr, ptr %12, align 8, !tbaa !4
  %111 = ptrtoint ptr %109 to i64
  %112 = ptrtoint ptr %110 to i64
  %113 = sub i64 %111, %112
  %114 = trunc i64 %113 to i32
  store i32 %114, ptr %108, align 4, !tbaa !30
  call void @llvm.memcpy.p0.p0.i64(ptr align 4 %100, ptr align 4 %17, i64 8, i1 false), !tbaa.struct !31
  store i32 0, ptr %15, align 4
  br label %115

115:                                              ; preds = %90, %89
  call void @llvm.lifetime.end.p0(i64 8, ptr %16) #5
  %116 = load i32, ptr %15, align 4
  switch i32 %116, label %131 [
    i32 0, label %117
  ]

117:                                              ; preds = %115
  br label %118

118:                                              ; preds = %117
  br label %119

119:                                              ; preds = %118, %51
  %120 = load ptr, ptr %13, align 8, !tbaa !4
  %121 = getelementptr inbounds i8, ptr %120, i64 4
  %122 = load ptr, ptr %12, align 8, !tbaa !4
  %123 = ptrtoint ptr %121 to i64
  %124 = ptrtoint ptr %122 to i64
  %125 = sub i64 %123, %124
  %126 = load i32, ptr %9, align 4, !tbaa !12
  %127 = sext i32 %126 to i64
  %128 = add nsw i64 %127, %125
  %129 = trunc i64 %128 to i32
  store i32 %129, ptr %9, align 4, !tbaa !12
  %130 = load ptr, ptr %13, align 8, !tbaa !4
  store ptr %130, ptr %12, align 8, !tbaa !4
  store i32 0, ptr %15, align 4
  br label %131

131:                                              ; preds = %119, %115, %73, %44
  call void @llvm.lifetime.end.p0(i64 8, ptr %14) #5
  %132 = load i32, ptr %15, align 4
  switch i32 %132, label %136 [
    i32 0, label %133
    i32 2, label %134
  ]

133:                                              ; preds = %131
  br label %26

134:                                              ; preds = %131
  %135 = load i32, ptr %9, align 4, !tbaa !12
  store i32 %135, ptr %5, align 4
  store i32 1, ptr %15, align 4
  br label %136

136:                                              ; preds = %134, %131
  call void @llvm.lifetime.end.p0(i64 8, ptr %13) #5
  call void @llvm.lifetime.end.p0(i64 8, ptr %12) #5
  call void @llvm.lifetime.end.p0(i64 8, ptr %11) #5
  call void @llvm.lifetime.end.p0(i64 8, ptr %10) #5
  %137 = load i32, ptr %5, align 4
  ret i32 %137
}

; Function Attrs: nounwind uwtable
define i32 @ff_nal_units_create_list(ptr noundef %0, ptr noundef %1, i32 noundef %2) #0 {
  %4 = alloca ptr, align 8
  %5 = alloca ptr, align 8
  %6 = alloca i32, align 4
  store ptr %0, ptr %4, align 8, !tbaa !18
  store ptr %1, ptr %5, align 8, !tbaa !4
  store i32 %2, ptr %6, align 4, !tbaa !12
  %7 = load ptr, ptr %4, align 8, !tbaa !18
  %8 = getelementptr inbounds nuw %struct.NALUList, ptr %7, i32 0, i32 2
  store i32 0, ptr %8, align 4, !tbaa !23
  %9 = load ptr, ptr %4, align 8, !tbaa !18
  %10 = load ptr, ptr %5, align 8, !tbaa !4
  %11 = load i32, ptr %6, align 4, !tbaa !12
  %12 = call i32 @nal_parse_units(ptr noundef null, ptr noundef %9, ptr noundef %10, i32 noundef %11)
  ret i32 %12
}