; Function Attrs: nounwind uwtable
define i32 @ff_nal_units_create_list(ptr noundef initializes((12, 16)) %0, ptr noundef %1, i32 noundef %2) local_unnamed_addr #2 {
  %4 = getelementptr inbounds nuw i8, ptr %0, i64 12
  store i32 0, ptr %4, align 4, !tbaa !12
  %5 = sext i32 %2 to i64
  %6 = getelementptr inbounds i8, ptr %1, i64 %5
  %7 = tail call ptr @ff_nal_find_startcode(ptr noundef %1, ptr noundef %6)
  %8 = getelementptr inbounds nuw i8, ptr %0, i64 8
  %9 = ptrtoint ptr %1 to i64
  br label %.split.us.i

.split.us.i:                                      ; preds = %.critedge54.us.i, %3
  %.042.us.i = phi ptr [ %17, %.critedge54.us.i ], [ %7, %3 ]
  %.040.us.i = phi i32 [ %38, %.critedge54.us.i ], [ 0, %3 ]
  br label %10

10:                                               ; preds = %12, %.split.us.i
  %.143.us.i = phi ptr [ %.042.us.i, %.split.us.i ], [ %13, %12 ]
  %11 = icmp ult ptr %.143.us.i, %6
  br i1 %11, label %12, label %.critedge.us.i

12:                                               ; preds = %10
  %13 = getelementptr inbounds nuw i8, ptr %.143.us.i, i64 1
  %14 = load i8, ptr %.143.us.i, align 1, !tbaa !4
  %.not.us.i = icmp eq i8 %14, 0
  br i1 %.not.us.i, label %10, label %.critedge.us.i, !llvm.loop !11

.critedge.us.i:                                   ; preds = %12, %10
  %.244.us.i = phi ptr [ %13, %12 ], [ %.143.us.i, %10 ]
  %15 = icmp eq ptr %.244.us.i, %6
  br i1 %15, label %nal_parse_units.exit, label %16

16:                                               ; preds = %.critedge.us.i
  %17 = tail call ptr @ff_nal_find_startcode(ptr noundef %.244.us.i, ptr noundef %6)
  %18 = load i32, ptr %4, align 4, !tbaa !12
  %19 = load ptr, ptr %0, align 8, !tbaa !17
  %20 = add i32 %18, 1
  %21 = zext i32 %20 to i64
  %22 = shl nuw nsw i64 %21, 3
  %23 = tail call ptr @av_fast_realloc(ptr noundef %19, ptr noundef nonnull %8, i64 noundef %22) #8
  %.not52.not.us.i = icmp eq ptr %23, null
  br i1 %.not52.not.us.i, label %nal_parse_units.exit, label %.critedge54.us.i

.critedge54.us.i:                                 ; preds = %16
  store ptr %23, ptr %0, align 8, !tbaa !17
  %24 = load i32, ptr %4, align 4, !tbaa !12
  %25 = add i32 %24, 1
  store i32 %25, ptr %4, align 4, !tbaa !12
  %26 = zext i32 %24 to i64
  %27 = getelementptr inbounds nuw %struct.NALU, ptr %23, i64 %26
  %28 = ptrtoint ptr %.244.us.i to i64
  %29 = sub i64 %28, %9
  %30 = trunc i64 %29 to i32
  %31 = ptrtoint ptr %17 to i64
  %32 = sub i64 %31, %28
  %33 = trunc i64 %32 to i32
  store i32 %30, ptr %27, align 4, !tbaa !18
  %.sroa.2.0..sroa_idx.us.i = getelementptr inbounds nuw i8, ptr %27, i64 4
  store i32 %33, ptr %.sroa.2.0..sroa_idx.us.i, align 4, !tbaa !18
  %34 = getelementptr inbounds nuw i8, ptr %17, i64 4
  %35 = ptrtoint ptr %34 to i64
  %36 = sub i64 %35, %28
  %37 = trunc i64 %36 to i32
  %38 = add i32 %.040.us.i, %37
  br label %.split.us.i

nal_parse_units.exit:                             ; preds = %.critedge.us.i, %16
  %.us-phi.i = phi i32 [ %.040.us.i, %.critedge.us.i ], [ -12, %16 ]
  ret i32 %.us-phi.i
}